Certificate:
    Data:
        Version: 3 (0x2)
        Serial Number: 2 (0x2)
        Signature Algorithm: sha1WithRSAEncryption
        Issuer: C=IT, ST=Caserta, L=Calvi Risorta, O=Fatted
        Validity
            Not Before: Jun 13 12:07:42 2022 GMT
            Not After : Jun 13 12:07:42 2023 GMT
        Subject: C=IT, ST=Caserta, O=Fatted, OU=Fatted, CN=Fatted/emailAddress=fattedcube74@gmail.com
        Subject Public Key Info:
            Public Key Algorithm: rsaEncryption
                RSA Public-Key: (2048 bit)
                Modulus:
                    00:d0:9c:07:43:a2:11:8a:e6:0d:0b:a4:0f:1b:65:
                    d7:98:9d:55:50:ac:00:34:0a:4a:74:d8:bf:9f:4d:
                    b6:ef:6e:3c:cc:43:98:39:f1:dd:23:7d:4d:1a:dd:
                    e3:7b:7a:37:d3:5d:e1:fb:3f:33:10:b3:94:31:28:
                    ab:c1:d5:c1:ee:b3:e3:23:4f:78:7b:7a:f6:67:05:
                    67:7b:d5:20:dc:d2:24:1e:3b:a1:8e:d9:4d:d5:67:
                    f0:b7:f6:80:16:92:0b:f3:84:ac:b0:31:77:75:02:
                    39:04:08:dc:cd:db:88:78:6f:42:e6:e4:34:ae:72:
                    a9:03:fe:7e:1d:ca:c0:9f:52:2f:3e:51:a2:83:a3:
                    dc:0f:a0:9e:3d:fa:5f:88:62:d6:3b:84:03:12:04:
                    ae:84:cc:a6:05:73:e6:d9:57:3f:77:d6:61:d2:25:
                    35:b5:2b:41:18:8a:89:c0:a7:a6:51:52:79:67:e1:
                    b9:fe:9d:e8:8f:30:7b:85:d8:de:12:6e:12:80:aa:
                    06:88:39:81:f1:04:ab:31:e9:3a:6a:aa:8b:32:32:
                    b3:89:98:2c:32:83:d5:68:0b:17:24:3b:01:6d:d9:
                    ec:79:2d:3b:a7:1a:d7:60:1e:69:c2:e6:59:6b:b8:
                    31:b9:ce:51:54:6f:b2:1c:a6:18:e1:64:ca:03:22:
                    a6:23
                Exponent: 65537 (0x10001)
        X509v3 extensions:
            X509v3 Key Usage: 
                Digital Signature, Non Repudiation
            X509v3 Extended Key Usage: critical
                Time Stamping
            X509v3 Subject Key Identifier: 
                E5:C1:04:C0:4E:5B:D3:6D:1C:01:1B:A2:7D:D3:E1:2E:0B:8A:16:84
            X509v3 Authority Key Identifier: 
                keyid:28:46:C0:19:44:D9:84:3A:67:89:32:34:13:E6:72:24:50:70:39:33

            X509v3 Basic Constraints: critical
                CA:TRUE
    Signature Algorithm: sha1WithRSAEncryption
         04:48:ff:08:66:e0:a9:8b:28:61:45:ed:76:7f:23:26:ef:92:
         89:cd:b8:b1:1c:e0:0c:fe:13:0e:b2:4d:62:cf:72:ac:ef:b2:
         8a:e1:f2:74:be:ad:1e:38:56:cd:e5:fe:49:54:68:fd:76:32:
         9c:68:ee:b9:e6:79:03:9f:71:b7:47:a8:51:6f:31:b4:7b:6f:
         f7:9f:bf:af:51:3f:c1:82:8d:f2:4a:14:a3:84:71:9a:66:58:
         c4:9e:02:99:55:b0:aa:05:a3:3b:12:c9:58:a3:ff:da:c5:de:
         84:31:2b:ba:9b:01:05:7a:69:a8:bc:44:cd:20:5d:a6:17:42:
         de:6d:e5:5f:c3:a5:99:24:9e:2d:c2:a8:f9:c0:0b:1c:c0:a3:
         61:7a:f1:ba:6a:66:be:00:fa:6a:a8:bc:f5:df:c1:b5:37:f7:
         c5:9a:4d:b3:27:1d:86:47:99:84:9a:b8:6b:67:89:7f:0a:64:
         e6:ee:73:f3:87:87:fa:04:34:4e:fa:39:f7:0d:cc:f6:fa:06:
         98:0b:fb:a8:cf:d1:4b:9e:f1:d5:92:d1:2a:1f:d6:e4:54:91:
         fa:b9:24:8b:1f:a4:40:3e:63:47:40:57:7d:a9:77:29:9c:55:
         77:0d:3f:f6:d1:ce:3b:21:83:01:cf:c3:d5:2d:1e:ed:76:d3:
         2f:fa:16:24
-----BEGIN CERTIFICATE-----
MIIDtDCCApygAwIBAgIBAjANBgkqhkiG9w0BAQUFADBIMQswCQYDVQQGEwJJVDEQ
MA4GA1UECAwHQ2FzZXJ0YTEWMBQGA1UEBwwNQ2FsdmkgUmlzb3J0YTEPMA0GA1UE
CgwGRmF0dGVkMB4XDTIyMDYxMzEyMDc0MloXDTIzMDYxMzEyMDc0MloweTELMAkG
A1UEBhMCSVQxEDAOBgNVBAgMB0Nhc2VydGExDzANBgNVBAoMBkZhdHRlZDEPMA0G
A1UECwwGRmF0dGVkMQ8wDQYDVQQDDAZGYXR0ZWQxJTAjBgkqhkiG9w0BCQEWFmZh
dHRlZGN1YmU3NEBnbWFpbC5jb20wggEiMA0GCSqGSIb3DQEBAQUAA4IBDwAwggEK
AoIBAQDQnAdDohGK5g0LpA8bZdeYnVVQrAA0Ckp02L+fTbbvbjzMQ5g58d0jfU0a
3eN7ejfTXeH7PzMQs5QxKKvB1cHus+MjT3h7evZnBWd71SDc0iQeO6GO2U3VZ/C3
9oAWkgvzhKywMXd1AjkECNzN24h4b0Lm5DSucqkD/n4dysCfUi8+UaKDo9wPoJ49
+l+IYtY7hAMSBK6EzKYFc+bZVz931mHSJTW1K0EYionAp6ZRUnln4bn+neiPMHuF
2N4SbhKAqgaIOYHxBKsx6TpqqosyMrOJmCwyg9VoCxckOwFt2ex5LTunGtdgHmnC
5llruDG5zlFUb7IcphjhZMoDIqYjAgMBAAGjeDB2MAsGA1UdDwQEAwIGwDAWBgNV
HSUBAf8EDDAKBggrBgEFBQcDCDAdBgNVHQ4EFgQU5cEEwE5b020cARuifdPhLguK
FoQwHwYDVR0jBBgwFoAUKEbAGUTZhDpniTI0E+ZyJFBwOTMwDwYDVR0TAQH/BAUw
AwEB/zANBgkqhkiG9w0BAQUFAAOCAQEABEj/CGbgqYsoYUXtdn8jJu+Sic24sRzg
DP4TDrJNYs9yrO+yiuHydL6tHjhWzeX+SVRo/XYynGjuueZ5A59xt0eoUW8xtHtv
95+/r1E/wYKN8koUo4RxmmZYxJ4CmVWwqgWjOxLJWKP/2sXehDErupsBBXppqLxE
zSBdphdC3m3lX8OlmSSeLcKo+cALHMCjYXrxumpmvgD6aqi89d/BtTf3xZpNsycd
hkeZhJq4a2eJfwpk5u5z84eH+gQ0Tvo59w3M9voGmAv7qM/RS57x1ZLRKh/W5FSR
+rkkix+kQD5jR0BXfal3KZxVdw0/9tHOOyGDAc/D1S0e7XbTL/oWJA==
-----END CERTIFICATE-----
