Certificate:
    Data:
        Version: 3 (0x2)
        Serial Number: 1 (0x1)
        Signature Algorithm: sha1WithRSAEncryption
        Issuer: C=IT, ST=Caserta, L=Calvi Risorta, O=Fatted, OU=Fatted, CN=Antonio/emailAddress=fattedcube74@gmail.com
        Validity
            Not Before: Jun 12 17:54:00 2022 GMT
            Not After : Jun 12 17:54:00 2023 GMT
        Subject: C=IT, ST=Caserta, O=Fatted, OU=Fatted, CN=Antonio/emailAddress=fattedcube74@gmail.com
        Subject Public Key Info:
            Public Key Algorithm: rsaEncryption
                RSA Public-Key: (2048 bit)
                Modulus:
                    00:c1:12:1d:fa:de:e1:a1:44:cb:14:26:ed:e9:bc:
                    e9:09:21:15:44:b1:2f:5a:dd:a8:b3:0a:53:43:d3:
                    cf:8c:01:00:e6:f9:b2:84:72:df:41:2f:e5:6c:29:
                    86:c3:12:d4:7a:f1:4e:77:f4:de:7f:9f:ee:b9:4b:
                    ec:fd:30:f7:31:fb:87:74:ca:fd:8a:b2:4f:db:2c:
                    9a:e1:cb:e3:40:ac:f3:b5:2a:f8:44:ef:cc:3e:9b:
                    89:c5:c2:0d:f4:39:93:65:66:23:04:2b:ec:99:e6:
                    3b:76:6e:3b:63:56:39:c6:e7:ec:f6:00:26:d2:f3:
                    5a:ec:b2:61:26:87:01:2d:2a:19:67:0c:d6:31:7c:
                    f4:18:f9:37:83:40:b9:00:94:39:aa:3f:1f:0a:d1:
                    33:df:70:d6:6a:a9:49:1c:6e:cf:98:eb:af:9e:8b:
                    0b:d1:2f:1a:61:85:9e:1f:5a:64:1d:ae:9b:d4:81:
                    81:04:65:fd:23:b2:11:e9:fd:5d:3e:80:cc:c1:98:
                    bc:d1:4f:5e:de:63:7d:2e:4f:50:6f:37:dd:f9:99:
                    12:3f:91:a7:fd:65:09:09:6d:cf:54:54:13:8c:a1:
                    08:10:21:f4:d1:96:64:58:e6:40:8b:65:6b:38:d5:
                    60:8d:eb:73:a0:80:92:c8:78:a6:09:a6:80:3e:0d:
                    a6:79
                Exponent: 65537 (0x10001)
        X509v3 extensions:
            X509v3 Basic Constraints: 
                CA:FALSE
            Netscape Comment: 
                OpenSSL Generated Certificate
            X509v3 Subject Key Identifier: 
                7D:9B:B7:04:C4:84:08:47:EF:81:AD:71:14:35:C1:A3:64:F3:77:C9
            X509v3 Authority Key Identifier: 
                keyid:F9:5B:F9:F8:18:78:14:DF:BE:E1:92:73:73:AC:D8:85:81:BF:5F:BB

    Signature Algorithm: sha1WithRSAEncryption
         7f:75:77:a0:89:de:c8:00:42:34:bd:73:ca:5c:f8:0b:79:57:
         a1:d9:43:06:04:af:d2:bb:89:76:79:05:35:5a:67:36:3d:34:
         64:fa:0e:e7:26:82:13:58:b0:46:64:1b:a3:4e:9c:8c:c5:d0:
         b4:16:af:af:01:c7:40:9c:6c:0d:8e:6a:3f:7f:cf:9c:1e:d7:
         93:5e:02:d5:9f:a9:a1:c5:3e:e6:96:98:48:ef:39:bd:c6:cd:
         90:cc:9f:18:5e:2f:a5:d5:ce:1b:2a:cf:ad:ee:82:96:f5:d2:
         c7:86:46:a2:2b:7a:7f:d0:48:a2:de:24:1b:32:12:f0:50:1e:
         9c:cd:2f:f9:86:dc:c8:d6:a3:36:ef:b0:fc:3d:57:c8:b8:09:
         80:c7:e7:ee:b3:d0:a8:fe:63:ec:7b:d1:ec:0a:4d:d2:a1:d2:
         2e:47:3e:b1:54:ed:fe:13:f9:3c:7c:74:09:e4:e5:be:af:6d:
         f9:84:d5:e6:ff:ed:73:d6:6f:bf:2b:14:b5:ff:aa:e2:ab:1e:
         6d:a7:0a:6d:aa:00:3a:ad:d2:4d:dc:64:14:7f:50:21:3c:e0:
         10:6a:9e:ac:d6:3f:cd:6d:d6:c5:f1:69:63:76:c0:26:c3:f9:
         dc:5a:1b:58:19:57:3c:b9:40:f3:e8:1b:b6:a0:b6:09:2b:71:
         b9:6c:bc:79
-----BEGIN CERTIFICATE-----
MIIEAzCCAuugAwIBAgIBATANBgkqhkiG9w0BAQUFADCBkjELMAkGA1UEBhMCSVQx
EDAOBgNVBAgMB0Nhc2VydGExFjAUBgNVBAcMDUNhbHZpIFJpc29ydGExDzANBgNV
BAoMBkZhdHRlZDEPMA0GA1UECwwGRmF0dGVkMRAwDgYDVQQDDAdBbnRvbmlvMSUw
IwYJKoZIhvcNAQkBFhZmYXR0ZWRjdWJlNzRAZ21haWwuY29tMB4XDTIyMDYxMjE3
NTQwMFoXDTIzMDYxMjE3NTQwMFowejELMAkGA1UEBhMCSVQxEDAOBgNVBAgMB0Nh
c2VydGExDzANBgNVBAoMBkZhdHRlZDEPMA0GA1UECwwGRmF0dGVkMRAwDgYDVQQD
DAdBbnRvbmlvMSUwIwYJKoZIhvcNAQkBFhZmYXR0ZWRjdWJlNzRAZ21haWwuY29t
MIIBIjANBgkqhkiG9w0BAQEFAAOCAQ8AMIIBCgKCAQEAwRId+t7hoUTLFCbt6bzp
CSEVRLEvWt2oswpTQ9PPjAEA5vmyhHLfQS/lbCmGwxLUevFOd/Tef5/uuUvs/TD3
MfuHdMr9irJP2yya4cvjQKzztSr4RO/MPpuJxcIN9DmTZWYjBCvsmeY7dm47Y1Y5
xufs9gAm0vNa7LJhJocBLSoZZwzWMXz0GPk3g0C5AJQ5qj8fCtEz33DWaqlJHG7P
mOuvnosL0S8aYYWeH1pkHa6b1IGBBGX9I7IR6f1dPoDMwZi80U9e3mN9Lk9Qbzfd
+ZkSP5Gn/WUJCW3PVFQTjKEIECH00ZZkWOZAi2VrONVgjetzoICSyHimCaaAPg2m
eQIDAQABo3sweTAJBgNVHRMEAjAAMCwGCWCGSAGG+EIBDQQfFh1PcGVuU1NMIEdl
bmVyYXRlZCBDZXJ0aWZpY2F0ZTAdBgNVHQ4EFgQUfZu3BMSECEfvga1xFDXBo2Tz
d8kwHwYDVR0jBBgwFoAU+Vv5+Bh4FN++4ZJzc6zYhYG/X7swDQYJKoZIhvcNAQEF
BQADggEBAH91d6CJ3sgAQjS9c8pc+At5V6HZQwYEr9K7iXZ5BTVaZzY9NGT6Ducm
ghNYsEZkG6NOnIzF0LQWr68Bx0CcbA2Oaj9/z5we15NeAtWfqaHFPuaWmEjvOb3G
zZDMnxheL6XVzhsqz63ugpb10seGRqIren/QSKLeJBsyEvBQHpzNL/mG3MjWozbv
sPw9V8i4CYDH5+6z0Kj+Y+x70ewKTdKh0i5HPrFU7f4T+Tx8dAnk5b6vbfmE1eb/
7XPWb78rFLX/quKrHm2nCm2qADqt0k3cZBR/UCE84BBqnqzWP81t1sXxaWN2wCbD
+dxaG1gZVzy5QPPoG7agtgkrcblsvHk=
-----END CERTIFICATE-----
